; Function Attrs: mustprogress nounwind uwtable
define hidden void @_ZNK8GCTracer26send_reference_stats_eventE13ReferenceTypem(ptr nocapture noundef nonnull readnone align 8 dereferenceable(80) %0, i32 noundef %1, i64 noundef %2) local_unnamed_addr #1 align 2 {
  %4 = alloca %class.EventGCReferenceStatistics, align 8
  %5 = getelementptr inbounds i8, ptr %4, i64 8
  call void @llvm.memset.p0.i64(ptr noundef nonnull align 8 dereferenceable(11) %5, i8 0, i64 11, i1 false)
  %6 = load i8, ptr getelementptr inbounds (i8, ptr @_ZN15JfrEventSetting19_jvm_event_settingsE, i64 1289), align 1
  %.not.i.not = icmp eq i8 %6, 0
  br i1 %.not.i.not, label %_ZN8JfrEventI26EventGCReferenceStatisticsE13should_commitEv.exit, label %7

7:                                                ; preds = %3
  %8 = getelementptr inbounds i8, ptr %4, i64 18
  %9 = getelementptr inbounds i8, ptr %4, i64 17
  %10 = tail call noundef i64 @_ZN33FastUnorderedElapsedCounterSource3nowEv() #11
  store i64 %10, ptr %4, align 8
  store i8 1, ptr %9, align 1
  store i8 1, ptr %8, align 2
  %11 = tail call noundef i32 @_ZN4GCId7currentEv() #11
  %12 = getelementptr inbounds i8, ptr %4, i64 20
  store i32 %11, ptr %12, align 4
  %13 = and i32 %1, 255
  %14 = zext nneg i32 %13 to i64
  %15 = getelementptr inbounds i8, ptr %4, i64 24
  store i64 %14, ptr %15, align 8
  %16 = getelementptr inbounds i8, ptr %4, i64 32
  store i64 %2, ptr %16, align 8
  call void @_ZN8JfrEventI26EventGCReferenceStatisticsE6commitEv(ptr noundef nonnull align 8 dereferenceable(19) %4)
  br label %_ZN8JfrEventI26EventGCReferenceStatisticsE13should_commitEv.exit

_ZN8JfrEventI26EventGCReferenceStatisticsE13should_commitEv.exit: ; preds = %3, %7
  ret void
}